Certificate:
    Data:
        Version: 3 (0x2)
        Serial Number: 1 (0x1)
        Signature Algorithm: sha256WithRSAEncryption
        Issuer: C=PT, ST=Lisbon, L=Lisbon, O=entity Certificate Authority, OU=Computer, CN=SRSI/emailAddress=entityca@iscte.pt
        Validity
            Not Before: Dec 10 13:18:36 2023 GMT
            Not After : Dec  9 13:18:36 2024 GMT
        Subject: C=PT, ST=Porto, L=Porto, O=Entity A, OU=Entity A, CN=FQDN/emailAddress=entitya@iscte.pt
        Subject Public Key Info:
            Public Key Algorithm: rsaEncryption
                Public-Key: (2048 bit)
                Modulus:
                    00:8b:1c:87:71:df:cc:f3:6c:15:aa:46:de:fc:68:
                    8c:5c:e2:25:e2:e7:60:72:8f:45:bf:6e:a3:8f:b0:
                    ce:67:f5:0b:76:4b:bc:d5:f6:3b:29:6c:81:6d:2c:
                    a3:30:6b:10:b7:54:84:e0:2f:77:82:b0:57:30:61:
                    8c:79:9d:5b:9e:e8:3e:57:80:06:8b:df:8d:01:4c:
                    79:3f:ec:cb:9b:d1:ae:01:66:05:d4:d6:f2:68:d6:
                    67:a5:a5:cc:5d:1d:ca:4e:8c:7c:ec:a7:d3:3c:d2:
                    24:1d:3f:be:17:6a:ef:ba:ad:1b:ac:36:00:bd:45:
                    e6:13:dd:a4:4b:7e:c6:e8:57:b9:a9:d6:cc:32:73:
                    9e:f3:95:b5:28:ef:f5:d5:a6:09:9f:fe:98:c7:30:
                    39:e8:0d:bf:81:58:46:4b:a0:0d:63:35:20:1a:c5:
                    b3:b2:35:d1:e1:68:74:17:77:1f:84:17:8e:49:b4:
                    01:24:65:91:df:1b:60:c1:5a:2c:2b:68:d1:fa:fc:
                    5b:a4:ad:52:a5:20:e1:74:5c:a9:ce:3d:3d:95:14:
                    22:88:3e:e4:51:c2:7f:92:bf:2c:62:1a:da:7a:52:
                    d2:e1:c5:fd:03:68:05:3a:68:88:df:3c:ff:8c:bf:
                    2e:10:b9:04:0d:e4:3e:e4:99:e7:23:73:52:7d:3c:
                    98:bd
                Exponent: 65537 (0x10001)
        X509v3 extensions:
            X509v3 Basic Constraints: 
                CA:FALSE
            X509v3 Subject Key Identifier: 
                36:88:07:62:02:5F:6B:BA:78:CB:01:FB:9E:7D:04:5B:E2:53:B2:6E
            X509v3 Authority Key Identifier: 
                F7:1E:78:C3:42:FA:C4:91:A9:CC:C9:CB:EE:2B:7E:FE:4A:8E:A1:BE
    Signature Algorithm: sha256WithRSAEncryption
    Signature Value:
        3d:0e:b5:b9:e2:5b:6a:60:52:ca:d4:a6:34:eb:62:40:68:74:
        80:8d:a2:2b:ea:a5:ed:43:a4:d3:4e:27:53:d1:8c:93:cf:2f:
        83:61:37:6e:c2:96:8d:9e:4d:f7:4f:87:34:c2:0d:0b:8d:2e:
        23:13:cf:77:0b:9a:ea:78:5e:af:d9:cb:62:2a:c5:b5:12:6e:
        b7:9d:80:ff:2a:0c:6d:ea:b0:21:b2:04:18:f4:90:cf:d5:e8:
        de:08:76:fe:d0:47:50:f3:52:33:dd:b1:33:b6:48:0b:9a:d5:
        4f:ac:8f:06:b9:45:52:d5:d6:e8:8d:68:5c:c8:e3:b1:1e:29:
        bf:74:1f:a1:b2:cf:3f:18:28:28:30:c5:80:7a:a4:1a:a7:8a:
        b3:77:2d:64:82:e2:0c:b3:b7:3f:40:0a:24:8c:63:b8:ff:37:
        f9:9a:b9:18:02:fb:d8:da:bd:45:28:41:5c:e4:5c:e3:e3:fa:
        8e:8f:31:bf:22:d7:09:94:ea:36:00:91:98:83:8a:c5:cc:dd:
        d4:ff:d6:09:2d:03:b4:64:ba:bc:e1:80:df:49:ed:e0:57:de:
        86:48:ba:9c:6d:39:31:3f:5f:5d:a4:02:42:25:2b:4d:0b:14:
        a2:99:8c:22:e8:dc:78:c8:6a:cb:ae:9d:c3:b3:9c:fc:11:2a:
        33:ff:f4:7b
-----BEGIN CERTIFICATE-----
MIID5zCCAs+gAwIBAgIBATANBgkqhkiG9w0BAQsFADCBmjELMAkGA1UEBhMCUFQx
DzANBgNVBAgMBkxpc2JvbjEPMA0GA1UEBwwGTGlzYm9uMSUwIwYDVQQKDBxlbnRp
dHkgQ2VydGlmaWNhdGUgQXV0aG9yaXR5MREwDwYDVQQLDAhDb21wdXRlcjENMAsG
A1UEAwwEU1JTSTEgMB4GCSqGSIb3DQEJARYRZW50aXR5Y2FAaXNjdGUucHQwHhcN
MjMxMjEwMTMxODM2WhcNMjQxMjA5MTMxODM2WjCBgzELMAkGA1UEBhMCUFQxDjAM
BgNVBAgMBVBvcnRvMQ4wDAYDVQQHDAVQb3J0bzERMA8GA1UECgwIRW50aXR5IEEx
ETAPBgNVBAsMCEVudGl0eSBBMQ0wCwYDVQQDDARGUUROMR8wHQYJKoZIhvcNAQkB
FhBlbnRpdHlhQGlzY3RlLnB0MIIBIjANBgkqhkiG9w0BAQEFAAOCAQ8AMIIBCgKC
AQEAixyHcd/M82wVqkbe/GiMXOIl4udgco9Fv26jj7DOZ/ULdku81fY7KWyBbSyj
MGsQt1SE4C93grBXMGGMeZ1bnug+V4AGi9+NAUx5P+zLm9GuAWYF1NbyaNZnpaXM
XR3KTox87KfTPNIkHT++F2rvuq0brDYAvUXmE92kS37G6Fe5qdbMMnOe85W1KO/1
1aYJn/6YxzA56A2/gVhGS6ANYzUgGsWzsjXR4Wh0F3cfhBeOSbQBJGWR3xtgwVos
K2jR+vxbpK1SpSDhdFypzj09lRQiiD7kUcJ/kr8sYhraelLS4cX9A2gFOmiI3zz/
jL8uELkEDeQ+5JnnI3NSfTyYvQIDAQABo00wSzAJBgNVHRMEAjAAMB0GA1UdDgQW
BBQ2iAdiAl9runjLAfuefQRb4lOybjAfBgNVHSMEGDAWgBT3HnjDQvrEkanMycvu
K37+So6hvjANBgkqhkiG9w0BAQsFAAOCAQEAPQ61ueJbamBSytSmNOtiQGh0gI2i
K+ql7UOk004nU9GMk88vg2E3bsKWjZ5N90+HNMINC40uIxPPdwua6nher9nLYirF
tRJut52A/yoMbeqwIbIEGPSQz9Xo3gh2/tBHUPNSM92xM7ZIC5rVT6yPBrlFUtXW
6I1oXMjjsR4pv3QfobLPPxgoKDDFgHqkGqeKs3ctZILiDLO3P0AKJIxjuP83+Zq5
GAL72Nq9RShBXORc4+P6jo8xvyLXCZTqNgCRmIOKxczd1P/WCS0DtGS6vOGA30nt
4Ffehki6nG05MT9fXaQCQiUrTQsUopmMIujceMhqy66dw7Oc/BEqM//0ew==
-----END CERTIFICATE-----
