Certificate:
    Data:
        Version: 3 (0x2)
        Serial Number: 4 (0x4)
        Signature Algorithm: sha256WithRSAEncryption
        Issuer: C=PT, ST=Lisbon, L=Lisbon, O=entity Certificate Authority, OU=Computer, CN=SRSI/emailAddress=entityca@iscte.pt
        Validity
            Not Before: Dec 10 13:52:33 2023 GMT
            Not After : Dec  9 13:52:33 2024 GMT
        Subject: C=PT, ST=Faro, L=Faro, O=BioTechnology, OU=BioTech, CN=BioTech/emailAddress=biotech@iscte.pt
        Subject Public Key Info:
            Public Key Algorithm: rsaEncryption
                Public-Key: (2048 bit)
                Modulus:
                    00:d4:cf:41:b6:22:ff:85:70:fd:f7:6b:9c:2a:9e:
                    bc:19:ea:fd:6c:e5:a0:27:a3:b7:9f:97:4f:56:46:
                    f5:4b:c1:3f:c1:8b:ff:9b:c5:67:a6:58:45:94:56:
                    c1:85:0c:ff:4e:3a:fe:08:d8:87:38:e6:d3:79:27:
                    d4:4f:ba:6f:ad:57:11:4f:c7:30:bc:1c:90:38:e8:
                    44:36:91:62:2f:7b:d7:fb:df:59:aa:29:69:9f:ee:
                    fc:36:fb:db:27:b7:43:fe:75:53:f4:60:c0:c8:b2:
                    ee:23:c8:52:3e:36:d8:94:db:ce:00:5a:69:1f:01:
                    90:aa:ae:04:f1:11:bb:70:86:08:5e:4a:e2:51:98:
                    54:4c:75:c6:46:90:0d:5c:46:86:be:c8:a0:bb:42:
                    1a:a3:b7:cc:ee:65:f9:c4:89:cd:90:ba:4c:ef:56:
                    0c:7c:9e:7e:38:62:52:e1:2c:5a:b0:80:99:7f:81:
                    20:4f:34:b2:8a:4a:f1:33:b5:6b:5b:2f:a0:5b:4e:
                    3e:96:15:cc:4a:e0:23:22:9b:3d:71:f0:a8:cc:d8:
                    7c:c4:b4:c5:e0:64:59:3b:8f:d4:5b:24:71:ba:7b:
                    26:7f:60:61:2d:7f:e7:dd:6d:f1:5b:10:35:47:d5:
                    9a:05:b1:14:c1:03:86:e0:36:b3:e0:72:a6:e6:2e:
                    3e:3f
                Exponent: 65537 (0x10001)
        X509v3 extensions:
            X509v3 Basic Constraints: 
                CA:FALSE
            X509v3 Subject Key Identifier: 
                C0:C7:01:93:8B:63:A1:22:07:BB:14:A2:A9:A8:06:19:4C:03:FB:99
            X509v3 Authority Key Identifier: 
                F7:1E:78:C3:42:FA:C4:91:A9:CC:C9:CB:EE:2B:7E:FE:4A:8E:A1:BE
    Signature Algorithm: sha256WithRSAEncryption
    Signature Value:
        2a:8a:75:53:20:f8:df:ab:88:11:b4:45:08:93:af:a9:18:70:
        c3:09:2b:6f:df:19:e2:97:be:45:10:09:3b:c0:53:1a:91:00:
        b8:4a:59:58:71:19:7b:08:66:16:56:10:1e:ee:ec:f7:db:81:
        17:bf:b1:5d:df:f2:83:35:64:dc:9f:73:ce:13:6a:f6:89:79:
        8f:37:15:50:b1:ba:ac:6c:93:ec:e6:94:09:aa:e8:fa:93:d9:
        18:45:1b:5e:6f:bd:99:2b:e6:c6:c3:15:21:50:55:3e:33:eb:
        1f:f7:53:e9:fc:67:5c:fa:e0:3d:fa:53:fd:09:f4:aa:4d:c0:
        81:c9:54:65:70:22:5f:9f:2c:d8:56:a5:9d:30:d7:e1:c3:46:
        40:29:8c:97:d5:25:1d:16:7e:6d:91:f6:cc:2c:52:73:fa:97:
        8d:16:da:f7:11:4d:fd:e8:22:af:90:fd:26:e1:f8:c2:ab:fa:
        78:e2:65:6d:a0:75:18:74:ef:34:e5:53:02:59:ba:78:6b:f1:
        86:02:22:43:8b:6c:a6:b1:26:2b:c2:4c:37:8c:aa:22:c2:ad:
        c6:33:c6:1a:a8:6a:eb:60:8f:12:80:28:81:ce:14:b0:c1:08:
        57:19:8c:1a:63:e1:5d:4d:c4:95:c2:04:d2:3e:c8:8b:e7:b1:
        b2:11:06:17
-----BEGIN CERTIFICATE-----
MIID7DCCAtSgAwIBAgIBBDANBgkqhkiG9w0BAQsFADCBmjELMAkGA1UEBhMCUFQx
DzANBgNVBAgMBkxpc2JvbjEPMA0GA1UEBwwGTGlzYm9uMSUwIwYDVQQKDBxlbnRp
dHkgQ2VydGlmaWNhdGUgQXV0aG9yaXR5MREwDwYDVQQLDAhDb21wdXRlcjENMAsG
A1UEAwwEU1JTSTEgMB4GCSqGSIb3DQEJARYRZW50aXR5Y2FAaXNjdGUucHQwHhcN
MjMxMjEwMTM1MjMzWhcNMjQxMjA5MTM1MjMzWjCBiDELMAkGA1UEBhMCUFQxDTAL
BgNVBAgMBEZhcm8xDTALBgNVBAcMBEZhcm8xFjAUBgNVBAoMDUJpb1RlY2hub2xv
Z3kxEDAOBgNVBAsMB0Jpb1RlY2gxEDAOBgNVBAMMB0Jpb1RlY2gxHzAdBgkqhkiG
9w0BCQEWEGJpb3RlY2hAaXNjdGUucHQwggEiMA0GCSqGSIb3DQEBAQUAA4IBDwAw
ggEKAoIBAQDUz0G2Iv+FcP33a5wqnrwZ6v1s5aAno7efl09WRvVLwT/Bi/+bxWem
WEWUVsGFDP9OOv4I2Ic45tN5J9RPum+tVxFPxzC8HJA46EQ2kWIve9f731mqKWmf
7vw2+9snt0P+dVP0YMDIsu4jyFI+NtiU284AWmkfAZCqrgTxEbtwhgheSuJRmFRM
dcZGkA1cRoa+yKC7Qhqjt8zuZfnEic2QukzvVgx8nn44YlLhLFqwgJl/gSBPNLKK
SvEztWtbL6BbTj6WFcxK4CMimz1x8KjM2HzEtMXgZFk7j9RbJHG6eyZ/YGEtf+fd
bfFbEDVH1ZoFsRTBA4bgNrPgcqbmLj4/AgMBAAGjTTBLMAkGA1UdEwQCMAAwHQYD
VR0OBBYEFMDHAZOLY6EiB7sUoqmoBhlMA/uZMB8GA1UdIwQYMBaAFPceeMNC+sSR
qczJy+4rfv5KjqG+MA0GCSqGSIb3DQEBCwUAA4IBAQAqinVTIPjfq4gRtEUIk6+p
GHDDCStv3xnil75FEAk7wFMakQC4SllYcRl7CGYWVhAe7uz324EXv7Fd3/KDNWTc
n3POE2r2iXmPNxVQsbqsbJPs5pQJquj6k9kYRRteb72ZK+bGwxUhUFU+M+sf91Pp
/Gdc+uA9+lP9CfSqTcCByVRlcCJfnyzYVqWdMNfhw0ZAKYyX1SUdFn5tkfbMLFJz
+peNFtr3EU396CKvkP0m4fjCq/p44mVtoHUYdO805VMCWbp4a/GGAiJDi2ymsSYr
wkw3jKoiwq3GM8YaqGrrYI8SgCiBzhSwwQhXGYwaY+FdTcSVwgTSPsiL57GyEQYX
-----END CERTIFICATE-----
